target datalayout = "e-m:e-p270:32:32-p271:32:32-p272:64:64-i64:64-i128:128-f80:128-n8:16:32:64-S128"
target triple = "x86_64-pc-linux-gnu"

%struct.Cnf_ThData_t_ = type { ptr, i32, i32, i32, i32, i32 }

; Function Attrs: nounwind uwtable
define ptr @Cnf_WorkerThread(ptr noundef %0) #0 {
  %2 = alloca ptr, align 8
  %3 = alloca ptr, align 8
  %4 = alloca ptr, align 8
  store ptr %0, ptr %2, align 8, !tbaa !20
  call void @llvm.lifetime.start.p0(i64 8, ptr %3) #12
  %5 = load ptr, ptr %2, align 8, !tbaa !20
  store ptr %5, ptr %3, align 8, !tbaa !21
  call void @llvm.lifetime.start.p0(i64 8, ptr %4) #12
  %6 = load ptr, ptr %3, align 8, !tbaa !21
  %7 = getelementptr inbounds nuw %struct.Cnf_ThData_t_, ptr %6, i32 0, i32 4
  store ptr %7, ptr %4, align 8, !tbaa !23
  br label %8

8:                                                ; preds = %21, %1
  br label %9

9:                                                ; preds = %8
  br label %10

10:                                               ; preds = %14, %9
  %11 = load ptr, ptr %4, align 8, !tbaa !23
  %12 = load volatile i32, ptr %11, align 4, !tbaa !3
  %13 = icmp eq i32 %12, 0
  br i1 %13, label %14, label %15

14:                                               ; preds = %10
  br label %10, !llvm.loop !25

15:                                               ; preds = %10
  %16 = load ptr, ptr %3, align 8, !tbaa !21
  %17 = getelementptr inbounds nuw %struct.Cnf_ThData_t_, ptr %16, i32 0, i32 1
  %18 = load i32, ptr %17, align 8, !tbaa !26
  %19 = icmp eq i32 %18, -1
  br i1 %19, label %20, label %21

20:                                               ; preds = %15
  call void @pthread_exit(ptr noundef null) #13
  unreachable

21:                                               ; preds = %15
  %22 = load ptr, ptr %3, align 8, !tbaa !21
  %23 = getelementptr inbounds nuw %struct.Cnf_ThData_t_, ptr %22, i32 0, i32 1
  %24 = load i32, ptr %23, align 8, !tbaa !26
  %25 = load ptr, ptr %3, align 8, !tbaa !21
  %26 = getelementptr inbounds nuw %struct.Cnf_ThData_t_, ptr %25, i32 0, i32 2
  %27 = load i32, ptr %26, align 4, !tbaa !28
  %28 = load ptr, ptr %3, align 8, !tbaa !21
  %29 = getelementptr inbounds nuw %struct.Cnf_ThData_t_, ptr %28, i32 0, i32 3
  %30 = load i32, ptr %29, align 8, !tbaa !29
  %31 = load ptr, ptr %3, align 8, !tbaa !21
  %32 = getelementptr inbounds nuw %struct.Cnf_ThData_t_, ptr %31, i32 0, i32 5
  %33 = load i32, ptr %32, align 8, !tbaa !30
  %34 = call ptr @Cnf_RunSolverOnce(i32 noundef %24, i32 noundef %27, i32 noundef %30, i32 noundef %33)
  %35 = load ptr, ptr %3, align 8, !tbaa !21
  %36 = getelementptr inbounds nuw %struct.Cnf_ThData_t_, ptr %35, i32 0, i32 0
  store ptr %34, ptr %36, align 8, !tbaa !31
  %37 = load ptr, ptr %3, align 8, !tbaa !21
  %38 = getelementptr inbounds nuw %struct.Cnf_ThData_t_, ptr %37, i32 0, i32 4
  store i32 0, ptr %38, align 4, !tbaa !32
  br label %8
}