; Function Attrs: noreturn nounwind uwtable
define noalias noundef nonnull ptr @Cnf_WorkerThread(ptr noundef %0) #5 {
  %2 = getelementptr inbounds nuw i8, ptr %0, i64 20
  %3 = getelementptr inbounds nuw i8, ptr %0, i64 8
  %4 = getelementptr inbounds nuw i8, ptr %0, i64 12
  %5 = getelementptr inbounds nuw i8, ptr %0, i64 16
  %6 = getelementptr inbounds nuw i8, ptr %0, i64 24
  br label %7

7:                                                ; preds = %.backedge, %1
  %8 = load volatile i32, ptr %2, align 4, !tbaa !14
  %9 = icmp eq i32 %8, 0
  br i1 %9, label %.backedge, label %10

.backedge:                                        ; preds = %7, %14
  br label %7, !llvm.loop !16

10:                                               ; preds = %7
  %11 = load i32, ptr %3, align 8, !tbaa !17
  %12 = icmp eq i32 %11, -1
  br i1 %12, label %13, label %14

13:                                               ; preds = %10
  tail call void @pthread_exit(ptr noundef null) #23
  unreachable

14:                                               ; preds = %10
  %15 = load i32, ptr %4, align 4, !tbaa !20
  %16 = load i32, ptr %5, align 8, !tbaa !21
  %17 = load i32, ptr %6, align 8, !tbaa !22
  %18 = tail call ptr @Cnf_RunSolverOnce(i32 noundef %11, i32 noundef %15, i32 noundef %16, i32 noundef %17)
  store ptr %18, ptr %0, align 8, !tbaa !23
  store i32 0, ptr %2, align 4, !tbaa !24
  br label %.backedge
}